; Function Attrs: mustprogress nofree norecurse nosync nounwind willreturn memory(read, inaccessiblemem: none) uwtable
define dso_local noundef zeroext i1 @_ZN15cmStateSnapshot17CanPopPolicyScopeEv(ptr noundef nonnull readonly align 8 captures(none) dereferenceable(24) %0) local_unnamed_addr #6 align 2 {
  %2 = getelementptr inbounds nuw i8, ptr %0, i64 8
  %3 = load ptr, ptr %2, align 8
  %4 = getelementptr inbounds nuw i8, ptr %0, i64 16
  %5 = load i64, ptr %4, align 8
  %6 = load ptr, ptr %3, align 8
  %7 = getelementptr %"struct.cmStateDetail::SnapshotDataType", ptr %6, i64 %5
  %.sroa.2.0..sroa_idx = getelementptr i8, ptr %7, i64 -136
  %.sroa.2.0.copyload = load i64, ptr %.sroa.2.0..sroa_idx, align 8
  %8 = getelementptr i8, ptr %7, i64 -168
  %9 = load i64, ptr %8, align 8
  %10 = icmp ne i64 %9, %.sroa.2.0.copyload
  ret i1 %10
}